; Function Attrs: mustprogress uwtable
define noundef i32 @_ZNK7testing8internal12UnitTestImpl21successful_test_countEv(ptr noundef nonnull readonly align 8 captures(none) dereferenceable(601) %0) local_unnamed_addr #3 align 2 {
  %2 = getelementptr inbounds nuw i8, ptr %0, i64 184
  %3 = getelementptr inbounds nuw i8, ptr %0, i64 192
  %4 = load ptr, ptr %3, align 8, !tbaa !789
  %5 = load ptr, ptr %2, align 8, !tbaa !790
  %.not15.i = icmp eq ptr %4, %5
  br i1 %.not15.i, label %_ZN7testing8internalL20SumOverTestSuiteListERKSt6vectorIPNS_9TestSuiteESaIS3_EEMS2_KFivE.exit, label %.lr.ph.split.us.i.preheader

.lr.ph.split.us.i.preheader:                      ; preds = %1
  %6 = ptrtoint ptr %4 to i64
  %7 = ptrtoint ptr %5 to i64
  %8 = sub i64 %6, %7
  %9 = ashr exact i64 %8, 3
  %umax = tail call i64 @llvm.umax.i64(i64 %9, i64 1)
  br label %.lr.ph.split.us.i

.lr.ph.split.us.i:                                ; preds = %.lr.ph.split.us.i.preheader, %_ZNK7testing9TestSuite21successful_test_countEv.exit
  %.014.us.i = phi i64 [ %48, %_ZNK7testing9TestSuite21successful_test_countEv.exit ], [ 0, %.lr.ph.split.us.i.preheader ]
  %.01213.us.i = phi i32 [ %47, %_ZNK7testing9TestSuite21successful_test_countEv.exit ], [ 0, %.lr.ph.split.us.i.preheader ]
  %10 = getelementptr inbounds nuw ptr, ptr %5, i64 %.014.us.i
  %11 = load ptr, ptr %10, align 8, !tbaa !774
  %12 = getelementptr inbounds nuw i8, ptr %11, i64 48
  %13 = load ptr, ptr %12, align 8, !tbaa !791
  %14 = getelementptr inbounds nuw i8, ptr %11, i64 56
  %15 = load ptr, ptr %14, align 8, !tbaa !791
  %.not7.i.i = icmp eq ptr %13, %15
  br i1 %.not7.i.i, label %_ZNK7testing9TestSuite21successful_test_countEv.exit, label %.lr.ph.i.i

.lr.ph.i.i:                                       ; preds = %.lr.ph.split.us.i, %_ZN7testing9TestSuite10TestPassedEPKNS_8TestInfoE.exit.i
  %.09.i.i = phi i32 [ %spec.select.i.i, %_ZN7testing9TestSuite10TestPassedEPKNS_8TestInfoE.exit.i ], [ 0, %.lr.ph.split.us.i ]
  %.sroa.04.08.i.i = phi ptr [ %46, %_ZN7testing9TestSuite10TestPassedEPKNS_8TestInfoE.exit.i ], [ %13, %.lr.ph.split.us.i ]
  %16 = load ptr, ptr %.sroa.04.08.i.i, align 8, !tbaa !792
  %17 = getelementptr inbounds nuw i8, ptr %16, i64 128
  %18 = load i8, ptr %17, align 8, !tbaa !793, !range !16, !noundef !17
  %19 = trunc nuw i8 %18 to i1
  br i1 %19, label %20, label %_ZN7testing9TestSuite10TestPassedEPKNS_8TestInfoE.exit.i

20:                                               ; preds = %.lr.ph.i.i
  %21 = getelementptr inbounds nuw i8, ptr %16, i64 200
  %22 = getelementptr inbounds nuw i8, ptr %16, i64 208
  %23 = load ptr, ptr %22, align 8, !tbaa !605
  %24 = load ptr, ptr %21, align 8, !tbaa !607
  %25 = ptrtoint ptr %23 to i64
  %26 = ptrtoint ptr %24 to i64
  %27 = sub i64 %25, %26
  %28 = sdiv exact i64 %27, 112
  %29 = trunc i64 %28 to i32
  %.not10.i.i.i = icmp slt i32 %29, 1
  br i1 %.not10.i.i.i, label %.loopexit.i.i, label %.lr.ph.preheader.i.i.i

.lr.ph.preheader.i.i.i:                           ; preds = %20
  %wide.trip.count.i.i.i = and i64 %28, 2147483647
  br label %.lr.ph.i.i.i

30:                                               ; preds = %_ZNK7testing10TestResult17GetTestPartResultEi.exit.i.i.i
  %indvars.iv.next.i.i.i = add nuw nsw i64 %indvars.iv.i.i.i, 1
  %exitcond16.not.i.i.i = icmp eq i64 %indvars.iv.next.i.i.i, %wide.trip.count.i.i.i
  br i1 %exitcond16.not.i.i.i, label %.loopexit.i.i, label %.lr.ph.i.i.i, !llvm.loop !796

.lr.ph.i.i.i:                                     ; preds = %30, %.lr.ph.preheader.i.i.i
  %indvars.iv.i.i.i = phi i64 [ 0, %.lr.ph.preheader.i.i.i ], [ %indvars.iv.next.i.i.i, %30 ]
  %exitcond.not.i.i.i = icmp eq i64 %indvars.iv.i.i.i, %28
  br i1 %exitcond.not.i.i.i, label %31, label %_ZNK7testing10TestResult17GetTestPartResultEi.exit.i.i.i

31:                                               ; preds = %.lr.ph.i.i.i
  tail call void (ptr, ...) @_ZSt24__throw_out_of_range_fmtPKcz(ptr noundef nonnull @.str.546, i64 noundef %28, i64 noundef %28) #59
  unreachable

_ZNK7testing10TestResult17GetTestPartResultEi.exit.i.i.i: ; preds = %.lr.ph.i.i.i
  %32 = getelementptr inbounds nuw %"class.testing::TestPartResult", ptr %24, i64 %indvars.iv.i.i.i
  %33 = load i32, ptr %32, align 8, !tbaa !604
  %34 = add i32 %33, -1
  %spec.select.i.i.i.i = icmp ult i32 %34, 2
  br i1 %spec.select.i.i.i.i, label %_ZNK7testing10TestResult7SkippedEv.exit.thread.i, label %30

.loopexit.i.i:                                    ; preds = %30, %20
  %.not7.i.i.i = icmp eq ptr %24, %23
  br i1 %.not7.i.i.i, label %_ZNK7testing10TestResult7SkippedEv.exit.thread.i, label %.lr.ph.i1.i.i

.lr.ph.i1.i.i:                                    ; preds = %.loopexit.i.i, %.lr.ph.i1.i.i
  %.09.i.i.i = phi i32 [ %spec.select.i.i.i, %.lr.ph.i1.i.i ], [ 0, %.loopexit.i.i ]
  %.sroa.04.08.i.i.i = phi ptr [ %38, %.lr.ph.i1.i.i ], [ %24, %.loopexit.i.i ]
  %35 = load i32, ptr %.sroa.04.08.i.i.i, align 8, !tbaa !604
  %36 = icmp eq i32 %35, 3
  %37 = zext i1 %36 to i32
  %spec.select.i.i.i = add nuw nsw i32 %.09.i.i.i, %37
  %38 = getelementptr inbounds nuw i8, ptr %.sroa.04.08.i.i.i, i64 112
  %.not.i.i.i = icmp eq ptr %38, %23
  br i1 %.not.i.i.i, label %_ZNK7testing10TestResult7SkippedEv.exit.i, label %.lr.ph.i1.i.i, !llvm.loop !797

_ZNK7testing10TestResult7SkippedEv.exit.i:        ; preds = %.lr.ph.i1.i.i
  %.not.i = icmp ne i32 %spec.select.i.i.i, 0
  %brmerge.i = or i1 %.not10.i.i.i, %.not.i
  %not..not.i = xor i1 %.not.i, true
  br i1 %brmerge.i, label %_ZNK7testing10TestResult6PassedEv.exit, label %.lr.ph.preheader.i.i

_ZNK7testing10TestResult7SkippedEv.exit.thread.i: ; preds = %_ZNK7testing10TestResult17GetTestPartResultEi.exit.i.i.i, %.loopexit.i.i
  br i1 %.not10.i.i.i, label %_ZNK7testing10TestResult6PassedEv.exit, label %.lr.ph.preheader.i.i

.lr.ph.preheader.i.i:                             ; preds = %_ZNK7testing10TestResult7SkippedEv.exit.thread.i, %_ZNK7testing10TestResult7SkippedEv.exit.i
  %wide.trip.count.i.i = and i64 %28, 2147483647
  br label %.lr.ph.i.i1

.lr.ph.i.i1:                                      ; preds = %_ZNK7testing10TestResult17GetTestPartResultEi.exit.i.i, %.lr.ph.preheader.i.i
  %indvars.iv.i.i = phi i64 [ 0, %.lr.ph.preheader.i.i ], [ %indvars.iv.next.i.i, %_ZNK7testing10TestResult17GetTestPartResultEi.exit.i.i ]
  %exitcond.not.i.i = icmp eq i64 %indvars.iv.i.i, %28
  br i1 %exitcond.not.i.i, label %39, label %_ZNK7testing10TestResult17GetTestPartResultEi.exit.i.i

39:                                               ; preds = %.lr.ph.i.i1
  tail call void (ptr, ...) @_ZSt24__throw_out_of_range_fmtPKcz(ptr noundef nonnull @.str.546, i64 noundef %28, i64 noundef %28) #59
  unreachable

_ZNK7testing10TestResult17GetTestPartResultEi.exit.i.i: ; preds = %.lr.ph.i.i1
  %40 = getelementptr inbounds nuw %"class.testing::TestPartResult", ptr %24, i64 %indvars.iv.i.i
  %41 = load i32, ptr %40, align 8, !tbaa !604
  %42 = add i32 %41, -3
  %spec.select.i.i1.i = icmp ult i32 %42, -2
  %indvars.iv.next.i.i = add nuw nsw i64 %indvars.iv.i.i, 1
  %exitcond16.not.i.i = icmp ne i64 %indvars.iv.next.i.i, %wide.trip.count.i.i
  %or.cond.not = select i1 %spec.select.i.i1.i, i1 %exitcond16.not.i.i, i1 false
  br i1 %or.cond.not, label %.lr.ph.i.i1, label %_ZNK7testing10TestResult6PassedEv.exit, !llvm.loop !796

_ZNK7testing10TestResult6PassedEv.exit:           ; preds = %_ZNK7testing10TestResult17GetTestPartResultEi.exit.i.i, %_ZNK7testing10TestResult7SkippedEv.exit.i, %_ZNK7testing10TestResult7SkippedEv.exit.thread.i
  %43 = phi i1 [ %not..not.i, %_ZNK7testing10TestResult7SkippedEv.exit.i ], [ true, %_ZNK7testing10TestResult7SkippedEv.exit.thread.i ], [ %spec.select.i.i1.i, %_ZNK7testing10TestResult17GetTestPartResultEi.exit.i.i ]
  %44 = zext i1 %43 to i32
  br label %_ZN7testing9TestSuite10TestPassedEPKNS_8TestInfoE.exit.i

_ZN7testing9TestSuite10TestPassedEPKNS_8TestInfoE.exit.i: ; preds = %_ZNK7testing10TestResult6PassedEv.exit, %.lr.ph.i.i
  %45 = phi i32 [ 0, %.lr.ph.i.i ], [ %44, %_ZNK7testing10TestResult6PassedEv.exit ]
  %spec.select.i.i = add nuw nsw i32 %45, %.09.i.i
  %46 = getelementptr inbounds nuw i8, ptr %.sroa.04.08.i.i, i64 8
  %.not.i.i = icmp eq ptr %46, %15
  br i1 %.not.i.i, label %_ZNK7testing9TestSuite21successful_test_countEv.exit, label %.lr.ph.i.i, !llvm.loop !798

_ZNK7testing9TestSuite21successful_test_countEv.exit: ; preds = %_ZN7testing9TestSuite10TestPassedEPKNS_8TestInfoE.exit.i, %.lr.ph.split.us.i
  %.0.lcssa.i.i = phi i32 [ 0, %.lr.ph.split.us.i ], [ %spec.select.i.i, %_ZN7testing9TestSuite10TestPassedEPKNS_8TestInfoE.exit.i ]
  %47 = add nsw i32 %.0.lcssa.i.i, %.01213.us.i
  %48 = add nuw i64 %.014.us.i, 1
  %exitcond.not = icmp eq i64 %48, %umax
  br i1 %exitcond.not, label %_ZN7testing8internalL20SumOverTestSuiteListERKSt6vectorIPNS_9TestSuiteESaIS3_EEMS2_KFivE.exit, label %.lr.ph.split.us.i, !llvm.loop !799

_ZN7testing8internalL20SumOverTestSuiteListERKSt6vectorIPNS_9TestSuiteESaIS3_EEMS2_KFivE.exit: ; preds = %_ZNK7testing9TestSuite21successful_test_countEv.exit, %1
  %.012.lcssa.i = phi i32 [ 0, %1 ], [ %47, %_ZNK7testing9TestSuite21successful_test_countEv.exit ]
  ret i32 %.012.lcssa.i
}